(lp0
(dp1
S'rows'
p2
(lp3
(dp4
S'month'
p5
S'01'
p6
sS'title'
p7
S'January 2003'
p8
sS'am'
p9
S'inspectors'
p10
sS'today'
p11
S'Sounds'
p12
sS'pm'
p13
S'HIH'
p14
sa(dp15
g5
S'02'
p16
sg7
S'February 2003'
p17
sg9
S'Blix'
p18
sg11
S'Warne'
p19
sg13
S'Warne'
p20
sa(dp21
g5
S'03'
p22
sg7
S'March 2003'
p23
sg9
S'Basra'
p24
sg11
S'Perle'
p25
sg13
S'Baghdad'
p26
sa(dp27
g5
S'04'
p28
sg7
S'April 2003'
p29
sg9
S'SARS'
p30
sg11
S'SARS'
p31
sg13
S'Baghdad'
p32
sa(dp33
g5
S'05'
p34
sg7
S'May 2003'
p35
sg9
S'Hollingworth'
p36
sg11
S'Hollingworth'
p37
sg13
S'Hollingworth'
p38
sa(dp39
g5
S'06'
p40
sg7
S'June 2003'
p41
sg9
S'Map'
p42
sg11
S'Crean'
p43
sg13
S'ONA'
p44
sa(dp45
g5
S'07'
p46
sg7
S'July 2003'
p47
sg9
S'Solomons'
p48
sg11
S'Solomons'
p49
sg13
S'Solomon'
p50
sa(dp51
g5
S'08'
p52
sg7
S'August 2003'
p53
sg9
S'Hambali'
p54
sg11
S'Mello'
p55
sg13
S'Amrozi'
p56
sa(dp57
g5
S'09'
p58
sg7
S'September 2003'
p59
sg9
S'sheep'
p60
sg11
S'sheep'
p61
sg13
S'sheep'
p62
sa(dp63
g5
S'10'
p64
sg7
S'October 2003'
p65
sg9
S'Mahathir'
p66
sg11
S'Mahathir'
p67
sg13
S'Cormo'
p68
sa(dp69
g5
S'11'
p70
sg7
S'November 2003'
p71
sg9
S'Melville'
p72
sg11
S'MedicarePlus'
p73
sg13
S'Melville'
p74
sa(dp75
g5
S'12'
p76
sg7
S'December 2003'
p77
sg9
S'Saddam'
p78
sg11
S'Latham'
p79
sg13
S'Latham'
p80
sasS'year'
p81
I2003
sa(dp82
g2
(lp83
(dp84
g5
S'01'
p85
sg7
S'January 2004'
p86
sg9
S'Waugh'
p87
sg11
S''
p88
sg13
S'Hookes'
p89
sa(dp90
g5
S'02'
p91
sg7
S'February 2004'
p92
sg9
S'Latham'
p93
sg11
g88
sg13
S'Latham'
p94
sa(dp95
g5
S'03'
p96
sg7
S'March 2004'
p97
sg9
S'Bulldogs'
p98
sg11
S'Madrid'
p99
sg13
S'Bulldogs'
p100
sa(dp101
g5
S'04'
p102
sg7
S'April 2004'
p103
sg9
S'Fallujah'
p104
sg11
S'Flint'
p105
sg13
S'Flint'
p106
sa(dp107
g5
S'05'
p108
sg7
S'May 2004'
p109
sg9
S'Mitsubishi'
p110
sg11
S'Falconio'
p111
sg13
S'Roche'
p112
sa(dp113
g5
S'06'
p114
sg7
S'June 2004'
p115
sg9
S'Roche'
p116
sg11
S'Kingsford'
p117
sg13
S'Roche'
p118
sa(dp119
g5
S'07'
p120
sg7
S'July 2004'
p121
sg9
S'Eadie'
p122
sg11
S'Eadie'
p123
sg13
S'Latham'
p124
sa(dp125
g5
S'08'
p126
sg7
S'August 2004'
p127
sg9
S'Butler'
p128
sg11
S'FTA'
p129
sg13
S'Butler'
p130
sa(dp131
g5
S'09'
p132
sg7
S'September 2004'
p133
sg9
S'Latham'
p134
sg11
S'Latham'
p135
sg13
S'Latham'
p136
sa(dp137
g5
S'10'
p138
sg7
S'October 2004'
p139
sg9
S'Kerry'
p140
sg11
S'Pitcairn'
p141
sg13
S'Latham'
p142
sa(dp143
g5
S'11'
p144
sg7
S'November 2004'
p145
sg9
S'Fallujah'
p146
sg11
S'Fallujah'
p147
sg13
S'Fallujah'
p148
sa(dp149
g5
S'12'
p150
sg7
S'December 2004'
p151
sg9
S'tsunamis'
p152
sg11
S'maiden'
p153
sg13
S'Sounds'
p154
sasg81
I2004
sa(dp155
g2
(lp156
(dp157
g5
S'01'
p158
sg7
S'January 2005'
p159
sg9
S'tsunami'
p160
sg11
S'Beazley'
p161
sg13
S'Aceh'
p162
sa(dp163
g5
S'02'
p164
sg7
S'February 2005'
p165
sg9
S'Rau'
p166
sg11
S'Rau'
p167
sg13
S'Rau'
p168
sa(dp169
g5
S'03'
p170
sg7
S'March 2005'
p171
sg9
S'Lightfoot'
p172
sg11
S'Lightfoot'
p173
sg13
S'secession'
p174
sa(dp175
g5
S'04'
p176
sg7
S'April 2005'
p177
sg9
S'Pope'
p178
sg11
S'Pope'
p179
sg13
S'Pope'
p180
sa(dp181
g5
S'05'
p182
sg7
S'May 2005'
p183
sg9
S'Wood'
p184
sg11
S'Solon'
p185
sg13
S'Solon'
p186
sa(dp187
g5
S'06'
p188
sg7
S'June 2005'
p189
sg9
S'Wood'
p190
sg11
S'Tegan'
p191
sg13
S'Lane'
p192
sa(dp193
g5
S'07'
p194
sg7
S'July 2005'
p195
sg9
S'Vizard'
p196
sg11
S'Discovery'
p197
sg13
S'Vizard'
p198
sa(dp199
g5
S'08'
p200
sg7
S'August 2005'
p201
sg9
S'settlers'
p202
sg11
S'Brogden'
p203
sg13
S'Editor'
p204
sa(dp205
g5
S'09'
p206
sg7
S'September 2005'
p207
sg9
S'Rita'
p208
sg11
S'Hurricane'
p209
sg13
S'Orleans'
p210
sa(dp211
g5
S'10'
p212
sg7
S'October 2005'
p213
sg9
S'flu'
p214
sg11
S'Bali'
p215
sg13
S'Nguyen'
p216
sa(dp217
g5
S'11'
p218
sg7
S'November 2005'
p219
sg9
S'Nguyen'
p220
sg11
S'Nguyen'
p221
sg13
S'Nguyen'
p222
sa(dp223
g5
S'12'
p224
sg7
S'December 2005'
p225
sg9
S'Nguyen'
p226
sg11
S'Nguyen'
p227
sg13
S'Nguyen'
p228
sasg81
I2005
sa(dp229
g2
(lp230
(dp231
g5
S'01'
p232
sg7
S'January 2006'
p233
sg9
S'Baghdatis'
p234
sg11
S'Cole'
p235
sg13
S'AWB'
p236
sa(dp237
g5
S'02'
p238
sg7
S'February 2006'
p239
sg9
S'AWB'
p240
sg11
S'AWB'
p241
sg13
S'AWB'
p242
sa(dp243
g5
S'03'
p244
sg7
S'March 2006'
p245
sg9
S'Games'
p246
sg11
S'Games'
p247
sg13
S'AWB'
p248
sa(dp249
g5
S'04'
p250
sg7
S'April 2006'
p251
sg9
S'ANZAC'
p252
sg11
S'Cole'
p253
sg13
S'Rini'
p254
sa(dp255
g5
S'05'
p256
sg7
S'May 2006'
p257
sg9
S'Beaconsfield'
p258
sg11
S'Beaconsfield'
p259
sg13
S'Beaconsfield'
p260
sa(dp261
g5
S'06'
p262
sg7
S'June 2006'
p263
sg9
S'Socceroos'
p264
sg11
S'Socceroos'
p265
sg13
S'Alkatiri'
p266
sa(dp267
g5
S'07'
p268
sg7
S'July 2006'
p269
sg9
S'Lebanon'
p270
sg11
S'Lebanon'
p271
sg13
S'Lebanon'
p272
sa(dp273
g5
S'08'
p274
sg7
S'August 2006'
p275
sg9
S'Lebanon'
p276
sg11
S'Lebanon'
p277
sg13
S'Lebanon'
p278
sa(dp279
g5
S'09'
p280
sg7
S'September 2006'
p281
sg9
S'Title'
p282
sg11
S'Hilliard'
p283
sg13
S'Vizard'
p284
sa(dp285
g5
S'10'
p286
sg7
S'October 2006'
p287
sg9
S'Hilali'
p288
sg11
S'Moti'
p289
sg13
S'Hilali'
p290
sa(dp291
g5
S'11'
p292
sg7
S'November 2006'
p293
sg9
S'Gemayel'
p294
sg11
S'Brimble'
p295
sg13
S'Brimble'
p296
sa(dp297
g5
S'12'
p298
sg7
S'December 2006'
p299
sg9
S'Fiji'
p300
sg11
S'Fiji'
p301
sg13
S'Palm'
p302
sasg81
I2006
sa(dp303
g2
(lp304
(dp305
g5
S'01'
p306
sg7
S'January 2007'
p307
sg9
S'Open'
p308
sg11
S'Snowtown'
p309
sg13
S'Chapman'
p310
sa(dp311
g5
S'02'
p312
sg7
S'February 2007'
p313
sg9
S'Jovicic'
p314
sg11
S'Hicks'
p315
sg13
S'Woolrich'
p316
sa(dp317
g5
S'03'
p318
sg7
S'March 2007'
p319
sg9
S'Hicks'
p320
sg11
S'Hicks'
p321
sg13
S'Santoro'
p322
sa(dp323
g5
S'04'
p324
sg7
S'April 2007'
p325
sg9
S'Billings'
p326
sg11
S'Cho'
p327
sg13
S'Woolrich'
p328
sa(dp329
g5
S'05'
p330
sg7
S'May 2007'
p331
sg9
S'volumes'
p332
sg11
S'Wolfowitz'
p333
sg13
S'Woolrich'
p334
sa(dp335
g5
S'06'
p336
sg7
S'June 2007'
p337
sg9
S'Mokbel'
p338
sg11
S'Mokbel'
p339
sg13
S'Byrne'
p340
sa(dp341
g5
S'07'
p342
sg7
S'July 2007'
p343
sg9
S'Haneef'
p344
sg11
S'Haneef'
p345
sg13
S'Haneef'
p346
sa(dp347
g5
S'08'
p348
sg7
S'August 2007'
p349
sg9
S'Haneef'
p350
sg11
S'Haneef'
p351
sg13
S'Woolrich'
p352
sa(dp353
g5
S'09'
p354
sg7
S'September 2007'
p355
sg9
S'APEC'
p356
sg11
S'APEC'
p357
sg13
S'APEC'
p358
sa(dp359
g5
S'10'
p360
sg7
S'October 2007'
p361
sg9
S'Uhlmann'
p362
sg11
S'Cousins'
p363
sg13
S'Glanville'
p364
sa(dp365
g5
S'11'
p366
sg7
S'November 2007'
p367
sg9
S'pamphlet'
p368
sg11
S'Musharraf'
p369
sg13
S'Banton'
p370
sa(dp371
g5
S'12'
p372
sg7
S'December 2007'
p373
sg9
S'Bhutto'
p374
sg11
S'Centro'
p375
sg13
S'Glanville'
p376
sasg81
I2007
sa(dp377
g2
(lp378
(dp379
g5
S'01'
p380
sg7
S'January 2008'
p381
sg9
S'Suharto'
p382
sg11
S'Giuliani'
p383
sg13
S'Bucknor'
p384
sa(dp385
g5
S'02'
p386
sg7
S'February 2008'
p387
sg9
S'Kosovo'
p388
sg11
S'apology'
p389
sg13
S'Kovco'
p390
sa(dp391
g5
S'03'
p392
sg7
S'March 2008'
p393
sg9
S'Tibetan'
p394
sg11
S'Tibet'
p395
sg13
S'Glanville'
p396
sa(dp397
g5
S'04'
p398
sg7
S'April 2008'
p399
sg9
S'torch'
p400
sg11
S'relay'
p401
sg13
S'torch'
p402
sa(dp403
g5
S'05'
p404
sg7
S'May 2008'
p405
sg9
S'Nargis'
p406
sg11
S'FuelWatch'
p407
sg13
S'Nargis'
p408
sa(dp409
g5
S'06'
p410
sg7
S'June 2008'
p411
sg9
S'FuelWatch'
p412
sg11
S'Neal'
p413
sg13
S'Belinda'
p414
sa(dp415
g5
S'07'
p416
sg7
S'July 2008'
p417
sg9
S'Karadzic'
p418
sg11
S'Karadzic'
p419
sg13
S'WYD'
p420
sa(dp421
g5
S'08'
p422
sg7
S'August 2008'
p423
sg9
S'Georgian'
p424
sg11
S'Georgia'
p425
sg13
S'Georgia'
p426
sa(dp427
g5
S'09'
p428
sg7
S'September 2008'
p429
sg9
S'Gustav'
p430
sg11
S'Lehman'
p431
sg13
S'Palin'
p432
sa(dp433
g5
S'10'
p434
sg7
S'October 2008'
p435
sg9
S'Lapthorne'
p436
sg11
S'Britt'
p437
sg13
S'McCain'
p438
sa(dp439
g5
S'11'
p440
sg7
S'November 2008'
p441
sg9
S'Mumbai'
p442
sg11
S'Mumbai'
p443
sg13
S'Learning'
p444
sa(dp445
g5
S'12'
p446
sg7
S'December 2008'
p447
sg9
S'cholera'
p448
sg11
S'cholera'
p449
sg13
S'Lexi'
p450
sasg81
I2008
sa(dp451
g2
(lp452
(dp453
g5
S'01'
p454
sg7
S'January 2009'
p455
sg9
S'Dokic'
p456
sg11
S'Cedric'
p457
sg13
S'inauguration'
p458
sa(dp459
g5
S'02'
p460
sg7
S'February 2009'
p461
sg9
S'stimulus'
p462
sg11
S'stimulus'
p463
sg13
S'stimulus'
p464
sa(dp465
g5
S'03'
p466
sg7
S'March 2009'
p467
sg9
S'Bligh'
p468
sg11
S'bikie'
p469
sg13
S'Lannin'
p470
sa(dp471
g5
S'04'
p472
sg7
S'April 2009'
p473
sg9
S'swine'
p474
sg11
S'swine'
p475
sg13
S'swine'
p476
sa(dp477
g5
S'05'
p478
sg7
S'May 2009'
p479
sg9
S'swine'
p480
sg11
S'swine'
p481
sg13
S'swine'
p482
sa(dp483
g5
S'06'
p484
sg7
S'June 2009'
p485
sg9
S'swine'
p486
sg11
S'swine'
p487
sg13
S'swine'
p488
sa(dp489
g5
S'07'
p490
sg7
S'July 2009'
p491
sg9
S'Hu'
p492
sg11
S'Theophanous'
p493
sg13
S'Nuttall'
p494
sa(dp495
g5
S'08'
p496
sg7
S'August 2009'
p497
sg9
S'ETS'
p498
sg11
S'Gorgon'
p499
sg13
S'Uighur'
p500
sa(dp501
g5
S'09'
p502
sg7
S'September 2009'
p503
sg9
S'Austrade'
p504
sg11
S'Renault'
p505
sg13
S'Samoa'
p506
sa(dp507
g5
S'10'
p508
sg7
S'October 2009'
p509
sg9
S'Viking'
p510
sg11
S'Samoa'
p511
sg13
S'Viking'
p512
sa(dp513
g5
S'11'
p514
sg7
S'November 2009'
p515
sg9
S'Viking'
p516
sg11
S'ETS'
p517
sg13
S'ETS'
p518
sa(dp519
g5
S'12'
p520
sg7
S'December 2009'
p521
sg9
S'Copenhagen'
p522
sg11
S'Copenhagen'
p523
sg13
S'Copenhagen'
p524
sasg81
I2009
sa(dp525
g2
(lp526
(dp527
g5
S'01'
p528
sg7
S'January 2010'
p529
sg9
S'Haiti'
p530
sg11
S'Sounds'
p531
sg13
S'Haiti'
p532
sa(dp533
g5
S'02'
p534
sg7
S'February 2010'
p535
sg9
S'insulation'
p536
sg11
S'insulation'
p537
sg13
S'insulation'
p538
sa(dp539
g5
S'03'
p540
sg7
S'March 2010'
p541
sg9
S'Hodgman'
p542
sg11
S'Chile'
p543
sg13
S'Bain'
p544
sa(dp545
g5
S'04'
p546
sg7
S'April 2010'
p547
sg9
S'Goldman'
p548
sg11
S'Brumby'
p549
sg13
S'Bain'
p550
sa(dp551
g5
S'05'
p552
sg7
S'May 2010'
p553
sg9
S'profits'
p554
sg11
S'Shirt'
p555
sg13
S'Alle'
p556
sa(dp557
g5
S'06'
p558
sg7
S'June 2010'
p559
sg9
S'BP'
p560
sg11
S'Kyrgyzstan'
p561
sg13
S'Alle'
p562
sa(dp563
g5
S'07'
p564
sg7
S'July 2010'
p565
sg9
S'Gillard'
p566
sg11
S'BP'
p567
sg13
S'Alle'
p568
sa(dp569
g5
S'08'
p570
sg7
S'August 2010'
p571
sg9
S'independents'
p572
sg11
S'minority'
p573
sg13
S'independents'
p574
sa(dp575
g5
S'09'
p576
sg7
S'September 2010'
p577
sg9
S'Games'
p578
sg11
S'Koran'
p579
sg13
S'Yuendumu'
p580
sa(dp581
g5
S'10'
p582
sg7
S'October 2010'
p583
sg9
S'Games'
p584
sg11
S'Games'
p585
sg13
S'Chilean'
p586
sa(dp587
g5
S'11'
p588
sg7
S'November 2010'
p589
sg9
S'Brumby'
p590
sg11
S'Greymouth'
p591
sg13
S'Pike'
p592
sa(dp593
g5
S'12'
p594
sg7
S'December 2010'
p595
sg9
S'Assange'
p596
sg11
S'WikiLeaks'
p597
sg13
S'WikiLeaks'
p598
sasg81
I2010
sa(dp599
g2
(lp600
(dp601
g5
S'01'
p602
sg7
S'January 2011'
p603
sg9
S'flood'
p604
sg11
S'Sounds'
p605
sg13
S'flood'
p606
sa(dp607
g5
S'02'
p608
sg7
S'February 2011'
p609
sg9
S'Yasi'
p610
sg11
S'Yasi'
p611
sg13
g88
sa(dp612
g5
S'03'
p613
sg7
S'March 2011'
p614
sg9
S'Libya'
p615
sg11
S'Gaddafi'
p616
sg13
S'Gaddafi'
p617
sa(dp618
g5
S'04'
p619
sg7
S'April 2011'
p620
sg9
S'Ivory'
p621
sg11
S'Ivory'
p622
sg13
g88
sa(dp623
g5
S'05'
p624
sg7
S'May 2011'
p625
sg9
S'Laden'
p626
sg11
S'Laden'
p627
sg13
S'Laden'
p628
sa(dp629
g5
S'06'
p630
sg7
S'June 2011'
p631
sg9
S'cattle'
p632
sg11
S'LulzSec'
p633
sg13
S'cattle'
p634
sa(dp635
g5
S'07'
p636
sg7
S'July 2011'
p637
sg9
S'hacking'
p638
sg11
S'hacking'
p639
sg13
S'carbon'
p640
sa(dp641
g5
S'08'
p642
sg7
S'August 2011'
p643
sg9
S'Tripoli'
p644
sg11
S'Gaddafi'
p645
sg13
S'Tripoli'
p646
sa(dp647
g5
S'09'
p648
sg7
S'September 2011'
p649
sg9
S'Migration'
p650
sg11
S'Libya'
p651
sg13
S'penicillin'
p652
sa(dp653
g5
S'10'
p654
sg7
S'October 2011'
p655
sg9
S'Gaddafi'
p656
sg11
S'Occupy'
p657
sg13
S'CHOGM'
p658
sa(dp659
g5
S'11'
p660
sg7
S'November 2011'
p661
sg9
S'Roebuck'
p662
sg11
S'Occupy'
p663
sg13
S'euro'
p664
sa(dp665
g5
S'12'
p666
sg7
S'December 2011'
p667
sg9
S'Ruxton'
p668
sg11
S'Durban'
p669
sg13
S'Documentary'
p670
sasg81
I2011
sa(dp671
g2
(lp672
(dp673
g5
S'01'
p674
sg7
S'January 2012'
p675
sg9
S'Romney'
p676
sg11
S'Wilkie'
p677
sg13
S'Documentary'
p678
sa(dp679
g5
S'02'
p680
sg7
S'February 2012'
p681
sg9
S'Romney'
p682
sg11
S'diamond'
p683
sg13
S'engineers'
p684
sa(dp685
g5
S'03'
p686
sg7
S'March 2012'
p687
sg9
S'Wagga'
p688
sg11
S'Wagga'
p689
sg13
S'Wagga'
p690
sa(dp691
g5
S'04'
p692
sg7
S'April 2012'
p693
sg9
S'Slipper'
p694
sg11
S'Nystrom'
p695
sg13
S'Bahrain'
p696
sa(dp697
g5
S'05'
p698
sg7
S'May 2012'
p699
sg9
S'Thomson'
p700
sg11
S'Hastie'
p701
sg13
S'Thomson'
p702
sa(dp703
g5
S'06'
p704
sg7
S'June 2012'
p705
sg9
S'Melinda'
p706
sg11
S'eurozone'
p707
sg13
S'Caviar'
p708
sa(dp709
g5
S'07'
p710
sg7
S'July 2012'
p711
sg9
S'Barclays'
p712
sg11
S'Kurnell'
p713
sg13
S'Jurrah'
p714
sa(dp715
g5
S'08'
p716
sg7
S'August 2012'
p717
sg9
S'Ecuador'
p718
sg11
S'Assange'
p719
sg13
S'Grocon'
p720
sa(dp721
g5
S'09'
p722
sg7
S'September 2012'
p723
sg9
S'trawler'
p724
sg11
S'sheep'
p725
sg13
S'trawler'
p726
sa(dp727
g5
S'10'
p728
sg7
S'October 2012'
p729
sg9
S'Armstrong'
p730
sg11
S'Sandy'
p731
sg13
S'Romney'
p732
sa(dp733
g5
S'11'
p734
sg7
S'November 2012'
p735
sg9
S'AWU'
p736
sg11
S'Gaza'
p737
sg13
S'Nauru'
p738
sa(dp739
g5
S'12'
p740
sg7
S'December 2012'
p741
sg9
S'cliff'
p742
sg11
S'Slipper'
p743
sg13
S'Documentary'
p744
sasg81
I2012
sa(dp745
g2
(lp746
(dp747
g5
S'01'
p748
sg7
S'January 2013'
p749
sg9
S'Peris'
p750
sg11
S'Algerian'
p751
sg13
S'Documentary'
p752
sa(dp753
g5
S'02'
p754
sg7
S'February 2013'
p755
sg9
S'Pistorius'
p756
sg11
S'Zygier'
p757
sg13
S'Obeid'
p758
sa(dp759
g5
S'03'
p760
sg7
S'March 2013'
p761
sg9
S'Cyprus'
p762
sg11
S'Cyprus'
p763
sg13
S'Cyprus'
p764
sa(dp765
g5
S'04'
p766
sg7
S'April 2013'
p767
sg9
S'Boston'
p768
sg11
S'Boston'
p769
sg13
S'Boston'
p770
sa(dp771
g5
S'05'
p772
sg7
S'May 2013'
p773
sg9
S'tornado'
p774
sg11
S'NDIS'
p775
sg13
S'Waterhouse'
p776
sa(dp777
g5
S'06'
p778
sg7
S'June 2013'
p779
sg9
S'Snowden'
p780
sg11
S'Gonski'
p781
sg13
S'Newcrest'
p782
sa(dp783
g5
S'07'
p784
sg7
S'July 2013'
p785
sg9
S'Morsi'
p786
sg11
S'Quigley'
p787
sg13
S'Morsi'
p788
sa(dp789
g5
S'08'
p790
sg7
S'August 2013'
p791
sg9
S'chemical'
p792
sg11
S'Essendon'
p793
sg13
S'Essendon'
p794
sa(dp795
g5
S'09'
p796
sg7
S'September 2013'
p797
sg9
S'Westgate'
p798
sg11
S'Abbott'
p799
sg13
S'Mirabella'
p800
sa(dp801
g5
S'10'
p802
sg7
S'October 2013'
p803
sg9
S'shutdown'
p804
sg11
S'Mountains'
p805
sg13
S'Mountains'
p806
sa(dp807
g5
S'11'
p808
sg7
S'November 2013'
p809
sg9
S'Haiyan'
p810
sg11
S'Haiyan'
p811
sg13
S'Haiyan'
p812
sa(dp813
g5
S'12'
p814
sg7
S'December 2013'
p815
sg9
S'Mandela'
p816
sg11
S'Holden'
p817
sg13
S'Documentary'
p818
sasg81
I2013
sa.